DCF-Receiver Version 1.5 (Build 141) - LogFile 

Sekunde    0: Minutenmarke (kennzeichnet den Beginn) 
Sekunde 1-14: Bereitgestellte Daten von BBK und Meteo Time 
Sekunde   15: Rufbit                        Sekunde 21-28: Minute mit Pruefbit 
Sekunde   16: Wechsel von MEZ <> MESZ       Sekunde 29-35: Stunde mit Pruefbit 
Sekunde   17: Sommerzeit                    Sekunde 36-41: Tag 
Sekunde   18: Winterzeit                    Sekunde 42-44: Wochentag 
Sekunde   19: Schaltsekunde                 Sekunde 45-49: Monat 
Sekunde   20: Beginn des Zeitprotokolls     Sekunde 50-58: Jahr mit Pruefbit fuers Datum 

           1     1    2 2         3      3   4  4   4     5 
0 12345678901234 567890 12345678 9012345 678901 234 56789 012345678 
M Wetterdaten    Info   Minute P StundeP Tag    WoT Monat Jahr    P  Datum:       Zeit:         Zusatzinformationen: 
==================================================================================================================== 
0 00101010110100 000101 00000000 0000000 000011 111 11000 000100000  So, 30.03.08 00:00:00, WZ   
0 00010110010111 000101 10000001 0000000 000011 111 11000 000100000  So, 30.03.08 00:01:00, WZ   
0 01001000010110 000101 01000001 0000000 000011 111 11000 000100000  So, 30.03.08 00:02:00, WZ   
0 11000000111001 000101 11000000 0000000 000011 111 11000 000100000  So, 30.03.08 00:03:00, WZ   
0 01000010000100 000101 00100001 0000000 000011 111 11000 000100000  So, 30.03.08 00:04:00, WZ   
0 10001110110110 000101 10100000 0000000 000011 111 11000 000100000  So, 30.03.08 00:05:00, WZ   
0 11100011011110 000101 01100000 0000000 000011 111 11000 000100000  So, 30.03.08 00:06:00, WZ   
0 00011000110011 000101 11100001 0000000 000011 111 11000 000100000  So, 30.03.08 00:07:00, WZ   
0 00010101011000 000101 00010001 0000000 000011 111 11000 000100000  So, 30.03.08 00:08:00, WZ   
0 01010010110100 000101 10010000 0000000 000011 111 11000 000100000  So, 30.03.08 00:09:00, WZ   
0 00110110100110 000101 00001001 0000000 000011 111 11000 000100000  So, 30.03.08 00:10:00, WZ   
0 00010001110110 000101 10001000 0000000 000011 111 11000 000100000  So, 30.03.08 00:11:00, WZ   
0 01010001101100 000101 01001000 0000000 000011 111 11000 000100000  So, 30.03.08 00:12:00, WZ   
0 00011010110110 000101 11001001 0000000 000011 111 11000 000100000  So, 30.03.08 00:13:00, WZ   
0 01101110000000 000101 00101000 0000000 000011 111 11000 000100000  So, 30.03.08 00:14:00, WZ   
0 11000010000000 000101 10101001 0000000 000011 111 11000 000100000  So, 30.03.08 00:15:00, WZ   
0 00000000100011 000101 01101001 0000000 000011 111 11000 000100000  So, 30.03.08 00:16:00, WZ   
0 01100000100000 000101 11101000 0000000 000011 111 11000 000100000  So, 30.03.08 00:17:00, WZ   
0 10101001101100 000101 00011000 0000000 000011 111 11000 000100000  So, 30.03.08 00:18:00, WZ   
0 01000110001000 000101 10011001 0000000 000011 111 11000 000100000  So, 30.03.08 00:19:00, WZ   
0 01100101011101 000101 00000101 0000000 000011 111 11000 000100000  So, 30.03.08 00:20:00, WZ   
0 11110101001100 000101 10000100 0000000 000011 111 11000 000100000  So, 30.03.08 00:21:00, WZ   
0 00110100100101 000101 01000100 0000000 000011 111 11000 000100000  So, 30.03.08 00:22:00, WZ   
0 00101110100010 000101 11000101 0000000 000011 111 11000 000100000  So, 30.03.08 00:23:00, WZ   
0 11011000111001 000101 00100100 0000000 000011 111 11000 000100000  So, 30.03.08 00:24:00, WZ   
0 00100110110101 000101 10100101 0000000 000011 111 11000 000100000  So, 30.03.08 00:25:00, WZ   
0 01011100000000 000101 01100101 0000000 000011 111 11000 000100000  So, 30.03.08 00:26:00, WZ   
0 00010100011110 000101 11100100 0000000 000011 111 11000 000100000  So, 30.03.08 00:27:00, WZ   
0 00000100010111 000101 00010100 0000000 000011 111 11000 000100000  So, 30.03.08 00:28:00, WZ   
0 10101000101101 000101 10010101 0000000 000011 111 11000 000100000  So, 30.03.08 00:29:00, WZ   
0 10101000101101 000101 00001100 0000000 000011 111 11000 000100000  So, 30.03.08 00:30:00, WZ   
0 01100000011110 000101 10001101 0000000 000011 111 11000 000100000  So, 30.03.08 00:31:00, WZ   
0 01110010110011 000101 01001101 0000000 000011 111 11000 000100000  So, 30.03.08 00:32:00, WZ   
0 00110010100111 000101 11001100 0000000 000011 111 11000 000100000  So, 30.03.08 00:33:00, WZ   
0 01111100100001 000101 00101101 0000000 000011 111 11000 000100000  So, 30.03.08 00:34:00, WZ   
0 00011111101011 000101 10101100 0000000 000011 111 11000 000100000  So, 30.03.08 00:35:00, WZ   
0 11001010101001 000101 01101100 0000000 000011 111 11000 000100000  So, 30.03.08 00:36:00, WZ   
0 01000010000011 000101 11101101 0000000 000011 111 11000 000100000  So, 30.03.08 00:37:00, WZ   
0 11011000100011 000101 00011101 0000000 000011 111 11000 000100000  So, 30.03.08 00:38:00, WZ   
0 00000010011001 000101 10011100 0000000 000011 111 11000 000100000  So, 30.03.08 00:39:00, WZ   
0 00011100000111 000101 00000011 0000000 000011 111 11000 000100000  So, 30.03.08 00:40:00, WZ   
0 00001011100111 000101 10000010 0000000 000011 111 11000 000100000  So, 30.03.08 00:41:00, WZ   
0 11111011100010 000101 01000010 0000000 000011 111 11000 000100000  So, 30.03.08 00:42:00, WZ   
0 00110000010001 000101 11000011 0000000 000011 111 11000 000100000  So, 30.03.08 00:43:00, WZ   
0 11100110001111 000101 00100010 0000000 000011 111 11000 000100000  So, 30.03.08 00:44:00, WZ   
0 11111000010111 000101 10100011 0000000 000011 111 11000 000100000  So, 30.03.08 00:45:00, WZ   
0 00101000111100 000101 01100011 0000000 000011 111 11000 000100000  So, 30.03.08 00:46:00, WZ   
0 11111000111001 000101 11100010 0000000 000011 111 11000 000100000  So, 30.03.08 00:47:00, WZ   
0 10000101101101 000101 00010010 0000000 000011 111 11000 000100000  So, 30.03.08 00:48:00, WZ   
0 01100100001001 000101 10010011 0000000 000011 111 11000 000100000  So, 30.03.08 00:49:00, WZ   
0 10010101110010 000101 00001010 0000000 000011 111 11000 000100000  So, 30.03.08 00:50:00, WZ   
0 00110000100001 000101 10001010 0000000 000011 111 11000 000100000  So, 30.03.09 00:51:00, WZ   
0 01011000100001 000101 01001011 0000000 000011 111 11000 000100000  So, 30.03.08 00:52:00, WZ   
0 00000011010101 000101 11001010 0000000 000011 111 11000 000100000  So, 30.03.08 00:53:00, WZ   
0 01000100111110 000101 00101011 0000000 000011 111 11000 000100000  So, 30.03.08 00:54:00, WZ   
0 01100010101101 000101 10101010 0000000 000011 111 11000 000100000  So, 30.03.08 00:55:00, WZ   
0 01110101110110 000101 01101010 0000000 000011 111 11000 000100000  So, 30.03.08 00:56:00, WZ   
0 10110011111000 000101 11101011 0000000 000011 111 11000 000100000  So, 30.03.08 00:57:00, WZ   
0 00100100001101 000101 00011011 0000000 000011 111 11000 000100000  So, 30.03.08 00:58:00, WZ   
0 01100101010001 000101 10011010 0000000 000011 111 11000 000100000  So, 30.03.08 00:59:00, WZ   
0 11011111010011 000101 00000000 1000001 000011 111 11000 000100000  So, 30.03.08 01:00:00, WZ   
0 01101110001100 010101 10000001 1000001 000011 111 11000 000100000  So, 30.03.08 01:01:00, WZ  Bit 16 gesetzt, Zeitzonenwechsel steht bevor 
0 11001101100110 010101 01000001 1000001 000011 111 11000 000100000  So, 30.03.08 01:02:00, WZ  Bit 16 gesetzt, Zeitzonenwechsel steht bevor 
0 11110000110100 010101 11000000 1000001 000011 111 11000 000100000  So, 30.03.08 01:03:00, WZ  Bit 16 gesetzt, Zeitzonenwechsel steht bevor 
0 01100000010111 010101 00100001 1000001 000011 111 11000 000100000  So, 30.03.08 01:04:00, WZ  Bit 16 gesetzt, Zeitzonenwechsel steht bevor 
0 11100001000000 010101 10100000 1000001 000011 111 11000 000100000  So, 30.03.08 01:05:00, WZ  Bit 16 gesetzt, Zeitzonenwechsel steht bevor 
0 11110101111101 010101 01100000 1000001 000011 111 11000 000100000  So, 30.03.08 01:06:00, WZ  Bit 16 gesetzt, Zeitzonenwechsel steht bevor 
0 00101110101011 010101 11100001 1000001 000011 111 11000 000100000  So, 30.03.08 01:07:00, WZ  Bit 16 gesetzt, Zeitzonenwechsel steht bevor 
0 11001001111111 010101 00010001 1000001 000011 111 11000 000100000  So, 30.03.08 01:08:00, WZ  Bit 16 gesetzt, Zeitzonenwechsel steht bevor 
0 00010110110000 010101 10010000 1000001 000011 111 11000 000100000  So, 30.03.08 01:09:00, WZ  Bit 16 gesetzt, Zeitzonenwechsel steht bevor 
0 00111000111011 010101 00001001 1000001 000011 111 11000 000100000  So, 30.03.08 01:10:00, WZ  Bit 16 gesetzt, Zeitzonenwechsel steht bevor 
0 01100110110111 010101 10001000 1000001 000011 111 11000 000100000  So, 30.03.08 01:11:00, WZ  Bit 16 gesetzt, Zeitzonenwechsel steht bevor 
0 01001111001100 010101 01001000 1000001 000011 111 11000 000100000  So, 30.03.08 01:12:00, WZ  Bit 16 gesetzt, Zeitzonenwechsel steht bevor 
0 00001110000100 010101 11001001 1000001 000011 111 11000 000100000  So, 30.03.08 01:13:00, WZ  Bit 16 gesetzt, Zeitzonenwechsel steht bevor 
0 10100011111101 010101 00101000 1000001 000011 111 11000 000100000  So, 30.03.08 01:14:00, WZ  Bit 16 gesetzt, Zeitzonenwechsel steht bevor 
0 10100101010110 010101 10101001 1000001 000011 111 11000 000100000  So, 30.03.08 01:15:00, WZ  Bit 16 gesetzt, Zeitzonenwechsel steht bevor 
0 00110000111101 010101 01101001 1000001 000011 111 11000 000100000  So, 30.03.08 01:16:00, WZ  Bit 16 gesetzt, Zeitzonenwechsel steht bevor 
0 01000100110111 010101 11101000 1000001 000011 111 11000 000100000  So, 30.03.08 01:17:00, WZ  Bit 16 gesetzt, Zeitzonenwechsel steht bevor 
0 01010001101011 010101 00011000 1000001 000011 111 11000 000100000  So, 30.03.08 01:18:00, WZ  Bit 16 gesetzt, Zeitzonenwechsel steht bevor 
0 00100110001100 010101 10011001 1000001 000011 111 11000 000100000  So, 30.03.08 01:19:00, WZ  Bit 16 gesetzt, Zeitzonenwechsel steht bevor 
0 10011101010110 010101 00000101 1000001 000011 111 11000 000100000  So, 30.03.08 01:20:00, WZ  Bit 16 gesetzt, Zeitzonenwechsel steht bevor 
0 01010111001001 010101 10000100 1000001 000011 111 11000 000100000  So, 30.03.08 01:21:00, WZ  Bit 16 gesetzt, Zeitzonenwechsel steht bevor 
0 01011100110100 010101 01000100 1000001 000011 111 11000 000100000  So, 30.03.08 01:22:00, WZ  Bit 16 gesetzt, Zeitzonenwechsel steht bevor 
0 11000010000010 010101 11000101 1000001 000011 111 11000 000100000  So, 30.03.08 01:23:00, WZ  Bit 16 gesetzt, Zeitzonenwechsel steht bevor 
0 01101100001000 010101 00100100 1000001 000011 111 11000 000100000  So, 30.03.08 01:24:00, WZ  Bit 16 gesetzt, Zeitzonenwechsel steht bevor 
0 00101000100011 010101 10100101 1000001 000011 111 11000 000100000  So, 30.03.08 01:25:00, WZ  Bit 16 gesetzt, Zeitzonenwechsel steht bevor 
0 00000011111100 010101 01100101 1000001 000011 111 11000 000100000  So, 30.03.08 01:26:00, WZ  Bit 16 gesetzt, Zeitzonenwechsel steht bevor 
0 11000000110001 010101 11100100 1000001 000011 111 11000 000100000  So, 30.03.08 01:27:00, WZ  Bit 16 gesetzt, Zeitzonenwechsel steht bevor 
0 01110110000110 010101 00010100 1000001 000011 111 11000 000100000  So, 30.03.08 01:28:00, WZ  Bit 16 gesetzt, Zeitzonenwechsel steht bevor 
0 00111101100101 010101 10010101 1000001 000011 111 11000 000100000  So, 30.03.08 01:29:00, WZ  Bit 16 gesetzt, Zeitzonenwechsel steht bevor 
0 01101000111011 010101 00001100 1000001 000011 111 11000 000100000  So, 30.03.08 01:30:00, WZ  Bit 16 gesetzt, Zeitzonenwechsel steht bevor 
0 00111000000011 010101 10001101 1000001 000011 111 11000 000100000  So, 30.03.08 01:31:00, WZ  Bit 16 gesetzt, Zeitzonenwechsel steht bevor 
0 11101100100010 010101 01001101 1000001 000011 111 11000 000100000  So, 30.03.08 01:32:00, WZ  Bit 16 gesetzt, Zeitzonenwechsel steht bevor 
0 11001100000010 010101 11001100 1000001 000011 111 11000 000100000  So, 30.03.08 01:33:00, WZ  Bit 16 gesetzt, Zeitzonenwechsel steht bevor 
0 01011000100001 010101 00101101 1000001 000011 111 11000 000100000  So, 30.03.08 01:34:00, WZ  Bit 16 gesetzt, Zeitzonenwechsel steht bevor 
0 11110110010111 010101 10101100 1000001 000011 111 11000 000100000  So, 30.03.08 01:35:00, WZ  Bit 16 gesetzt, Zeitzonenwechsel steht bevor 
0 10000100100100 010101 01101100 1000001 000011 111 11000 000100000  So, 30.03.08 01:36:00, WZ  Bit 16 gesetzt, Zeitzonenwechsel steht bevor 
0 01100010001001 010101 11101101 1000001 000011 111 11000 000100000  So, 30.03.08 01:37:00, WZ  Bit 16 gesetzt, Zeitzonenwechsel steht bevor 
0 00000011110010 010101 00011101 1000001 000011 111 11000 000100000  So, 30.03.08 01:38:00, WZ  Bit 16 gesetzt, Zeitzonenwechsel steht bevor 
0 10011010110011 010101 10011100 1000001 000011 111 11000 000100000  So, 30.03.08 01:39:00, WZ  Bit 16 gesetzt, Zeitzonenwechsel steht bevor 
0 01101110011000 010101 00000011 1000001 000011 111 11000 000100000  So, 30.03.08 01:40:00, WZ  Bit 16 gesetzt, Zeitzonenwechsel steht bevor 
0 11001101111110 010101 10000010 1000001 000011 111 11000 000100000  So, 30.03.08 01:41:00, WZ  Bit 16 gesetzt, Zeitzonenwechsel steht bevor 
0 11110001001100 010101 01000010 1000001 000011 111 11000 000100000  So, 30.03.08 01:42:00, WZ  Bit 16 gesetzt, Zeitzonenwechsel steht bevor 
0 00010110100010 010101 11000011 1000001 000011 111 11000 000100000  So, 30.03.08 01:43:00, WZ  Bit 16 gesetzt, Zeitzonenwechsel steht bevor 
0 10011101000010 010101 00100010 1000001 000011 111 11000 000100000  So, 30.03.08 01:44:00, WZ  Bit 16 gesetzt, Zeitzonenwechsel steht bevor 
0 01101000111001 010101 10100010 1000001 000011 111 11000 000100000  So, 30.03.08 01:45:00, WZ  Bit 16 gesetzt, Zeitzonenwechsel steht bevor
0 00011110100101 010101 01100011 1000001 000011 111 11000 000100000  So, 30.03.08 01:46:00, WZ  Bit 16 gesetzt, Zeitzonenwechsel steht bevor 
0 01000110011100 010101 11100010 1000001 000011 111 11000 000100000  So, 30.03.08 01:47:00, WZ  Bit 16 gesetzt, Zeitzonenwechsel steht bevor 
0 00110000100011 010101 00010010 1000001 000011 111 11000 000100000  So, 30.03.08 01:48:00, WZ  Bit 16 gesetzt, Zeitzonenwechsel steht bevor 
0 00000100100011 010101 10010011 1000001 000011 111 11000 000100000  So, 30.03.08 01:49:00, WZ  Bit 16 gesetzt, Zeitzonenwechsel steht bevor 
0 10101110001010 010101 00001010 1000001 000011 111 11000 000100000  So, 30.03.08 01:50:00, WZ  Bit 16 gesetzt, Zeitzonenwechsel steht bevor 
0 01011000010011 010101 10001011 1000001 000011 111 11000 000100000  So, 30.03.08 01:51:00, WZ  Bit 16 gesetzt, Zeitzonenwechsel steht bevor 
0 00100000101101 010101 01001011 1000001 000011 111 11000 000100000  So, 30.03.08 01:52:00, WZ  Bit 16 gesetzt, Zeitzonenwechsel steht bevor 
0 00011000010000 010101 11001010 1000001 000011 111 11000 000100000  So, 30.03.08 01:53:00, WZ  Bit 16 gesetzt, Zeitzonenwechsel steht bevor 
0 11001001100010 010101 00101011 1000001 000011 111 11000 000100000  So, 30.03.08 01:54:00, WZ  Bit 16 gesetzt, Zeitzonenwechsel steht bevor 
0 01010000010110 010101 10101010 1000001 000011 111 11000 000100000  So, 30.03.08 01:55:00, WZ  Bit 16 gesetzt, Zeitzonenwechsel steht bevor 
0 10110111001110 010101 01101010 1000001 000011 111 11000 000100000  So, 30.03.08 01:56:00, WZ  Bit 16 gesetzt, Zeitzonenwechsel steht bevor 
0 01010001101101 010101 11101011 1000001 000011 111 11000 000100000  So, 30.03.08 01:57:00, WZ  Bit 16 gesetzt, Zeitzonenwechsel steht bevor 
0 01000110111010 010101 00011011 1000001 000011 111 11000 000100000  So, 30.03.08 01:58:00, WZ  Bit 16 gesetzt, Zeitzonenwechsel steht bevor 
0 01000010100111 010101 10011010 1000001 000011 111 11000 000100000  So, 30.03.08 01:59:00, WZ  Bit 16 gesetzt, Zeitzonenwechsel steht bevor 
0 10000111100011 011001 00000000 1100000 000011 111 11000 000100000  So, 30.03.08 03:00:00, SZ  Bit 16 gesetzt, Zeitzonenwechsel steht bevor 
0 01010000010110 001001 10000001 1100000 000011 111 11000 000100000  So, 30.03.08 03:01:00, SZ 	 
0 00110001010111 001001 01000001 1100000 000011 111 11000 000100000  So, 30.03.08 03:02:00, SZ   
0 10100001111100 001001 11000000 1100000 000011 111 11000 000100000  So, 30.03.08 03:03:00, SZ   
0 01011010011010 001001 00100001 1100000 000011 111 11000 000100000  So, 30.03.08 03:04:00, SZ   
0 11000000000000 001001 10100001 1100000 000011 111 11000 000100000  So, 30.03.08 03:05:00, SZ   
0 01010010001001 001001 01100000 1100000 000011 111 11000 000100000  So, 30.03.08 03:06:00, SZ   
0 00010110111100 001001 11100001 1100000 000011 111 11000 000100000  So, 30.03.08 03:07:00, SZ   
0 11100100000010 001001 00010001 1100000 000011 111 11000 000100000  So, 30.03.08 03:08:00, SZ   
0 00110110000010 001001 10010000 1100000 000011 111 11000 000100000  So, 30.03.08 03:09:00, SZ   
0 01110100000011 001001 00001001 1100000 000011 111 11000 000100000  So, 30.03.08 03:10:00, SZ   
0 10011000111001 001001 10001000 1100000 000011 111 11000 000100000  So, 30.03.08 03:11:00, SZ   
0 11101010111111 001001 01001000 1100000 000011 111 11000 000100000  So, 30.03.08 03:12:00, SZ   
0 01001100111001 001001 11001001 1100000 000011 111 11000 000100000  So, 30.03.08 03:13:00, SZ   
0 00001011101111 001001 00101000 1100000 000011 111 11000 000100000  So, 30.03.08 03:14:00, SZ   
0 10001100101111 001001 10101001 1100000 000011 111 11000 000100000  So, 30.03.08 03:15:00, SZ   
0 01011010100011 001001 01101001 1100000 000011 111 11000 000100000  So, 30.03.08 03:16:00, SZ   
0 11111000101011 001001 11101000 1100000 000011 111 11000 000100000  So, 30.03.08 03:17:00, SZ   
0 00111010000001 001001 00011000 1100000 000011 111 11000 000100000  So, 30.03.08 03:18:00, SZ   
0 01000010101010 001001 10011001 1100000 000011 111 11000 000100000  So, 30.03.08 03:19:00, SZ   
0 01011000110011 001001 00000101 1100000 000011 111 11000 000100000  So, 30.03.08 03:20:00, SZ   
0 11010111100011 001001 10000100 1100000 000011 111 11000 000100000  So, 30.03.08 03:21:00, SZ   
0 01100110101100 001001 01000100 1100000 000011 111 11000 000100000  So, 30.03.08 03:22:00, SZ   
0 00001001010011 001001 11000101 1100000 000011 111 11000 000100000  So, 30.03.08 03:23:00, SZ   
0 01001100000111 001001 00100100 1100000 000011 111 11000 000100000  So, 30.03.08 03:24:00, SZ   
0 00000110000010 001001 10100101 1100000 000011 111 11000 000100000  So, 30.03.08 03:25:00, SZ   
0 00110111100110 001001 01100101 1100000 000011 111 11000 000100000  So, 30.03.08 03:26:00, SZ   
0 00101001010010 001001 11100100 1100000 000011 111 11000 000100000  So, 30.03.08 03:27:00, SZ   
0 01000100011101 001001 00010100 1100000 000011 111 11000 000100000  So, 30.03.08 03:28:00, SZ   
0 01100001100100 001001 10010101 1100000 000011 111 11000 000100000  So, 30.03.08 03:29:00, SZ   
0 01110100001101 001001 00001100 1100000 000011 111 11000 000100000  So, 30.03.08 03:30:00, SZ   
0 00011100111000 001001 10001101 1100000 000011 111 11000 000100000  So, 30.03.08 03:31:00, SZ   
0 11001100000010 001001 01001101 1100000 000011 111 11000 000100000  So, 30.03.08 03:32:00, SZ   
0 00110110101100 001001 11001100 1100000 000011 111 11000 000100000  So, 30.03.08 03:33:00, SZ   
0 00110000101001 001001 00101101 1100000 000011 111 11000 000100000  So, 30.03.08 03:34:00, SZ   
0 11101011001100 001001 10101100 1100000 000011 111 11000 000100000  So, 30.03.08 03:35:00, SZ   
0 01000111010100 001001 01101100 1100000 000011 111 11000 000100000  So, 30.03.08 03:36:00, SZ   
0 00000100110101 001001 11101101 1100000 000011 111 11000 000100000  So, 30.03.08 03:37:00, SZ   
0 11111011011100 001001 00011101 1100000 000011 111 11000 000100000  So, 30.03.08 03:38:00, SZ   
0 01100011110000 001001 10011100 1100000 000011 111 11000 000100000  So, 30.03.08 03:39:00, SZ   
0 00000110101011 001001 00000011 1100000 000011 111 11000 000100000  So, 30.03.08 03:40:00, SZ   
0 00101011100001 001001 10000010 1100000 000011 111 11000 000100000  So, 30.03.08 03:41:00, SZ   
0 11110000110111 001001 01000010 1100000 000011 111 11000 000100000  So, 30.03.08 03:42:00, SZ   
0 01110110010000 001001 11000011 1100000 000011 111 11000 000100000  So, 30.03.08 03:43:00, SZ   
0 11110010000111 001001 00100010 1100000 000011 111 11000 000100000  So, 30.03.08 03:44:00, SZ   
0 11100001010010 001001 10100011 1100000 000011 111 11000 000100000  So, 30.03.08 03:45:00, SZ   
0 01011100010001 001001 01100011 1100000 000011 111 11000 000100000  So, 30.03.08 03:46:00, SZ   
0 11010111101110 001001 11100010 1100000 000011 111 11000 000100000  So, 30.03.08 03:47:00, SZ   
0 01111111101001 001001 00010010 1100000 000011 111 11000 000100000  So, 30.03.08 03:48:00, SZ   
0 00100010001110 001001 10010011 1100000 000011 111 11000 000100000  So, 30.03.08 03:49:00, SZ   
0 01001100001101 001001 00001010 1100000 000011 111 11000 000100000  So, 30.03.08 03:50:00, SZ   
0 11110010001111 001001 10001011 1100000 000011 111 11000 000100000  So, 30.03.08 03:51:00, SZ   
0 01100100000111 001001 01001011 1100000 000011 111 11000 000100000  So, 30.03.08 03:52:00, SZ   
0 11110000001101 001001 11001010 1100000 000011 111 11000 000100000  So, 30.03.08 03:53:00, SZ   
0 01110100010111 001001 00101011 1100000 000011 111 11000 000100000  So, 30.03.08 03:54:00, SZ   
0 01011100110100 001001 10101010 1100000 000011 111 11000 000100000  So, 30.03.08 03:55:00, SZ   
0 01000101100010 001001 01101010 1100000 000011 111 11000 000100000  So, 30.03.08 03:56:00, SZ   
0 11110010000011 001001 11101011 1100000 000011 111 11000 000100000  So, 30.03.08 03:57:00, SZ   
0 01100000000101 001001 00011011 1100000 000011 111 11000 000100000  So, 30.03.08 03:58:00, SZ   
0 11110000110101 001001 10011010 1100000 000011 111 11000 000100000  So, 30.03.08 03:59:00, SZ   
==================================================================================================================== 
(c) 2008 by T&T-Soft (http://www.tt-soft.org)