DCF-Receiver-Service Version 1.0 (Build 102) - LogFile

Sekunde    0: Minutenmarke (kennzeichnet den Beginn)
Sekunde 1-14: Bereitgestellte Daten von BBK und Meteo Time
Sekunde   15: Rufbit                        Sekunde 21-28: Minute mit Pruefbit
Sekunde   16: Wechsel von MEZ <> MESZ       Sekunde 29-35: Stunde mit Pruefbit
Sekunde   17: Sommerzeit                    Sekunde 36-41: Tag
Sekunde   18: Winterzeit                    Sekunde 42-44: Wochentag
Sekunde   19: Schaltsekunde                 Sekunde 45-49: Monat
Sekunde   20: Beginn des Zeitprotokolls     Sekunde 50-58: Jahr mit Pruefbit fuers Datum

           1     1    2 2         3      3   4  4   4     5
0 12345678901234 567890 12345678 9012345 678901 234 56789 012345678
M Wetterdaten    Info   Minute P StundeP Tag    WoT Monat Jahr    P  Datum:       Zeit:         Zusatzinformationen:
====================================================================================================================
0 00010110001000 001001 10101010 1000001 011001 111 00001 000100000  So, 26.10.08 01:55:00, SZ  
0 10001110001111 001001 01101010 1000001 011001 111 00001 000100000  So, 26.10.08 01:56:00, SZ  
0 11110101011111 001001 11101011 1000001 011001 111 00001 000100000  So, 26.10.08 01:57:00, SZ  
0 01111100000000 001001 00011011 1000001 011001 111 00001 000100000  So, 26.10.08 01:58:00, SZ  
0 00011000001101 001001 10011010 1000001 011001 111 00001 000100000  So, 26.10.08 01:59:00, SZ  
0 01100001110111 001001 00000000 0100001 011001 111 00001 000100000  So, 26.10.08 02:00:00, SZ  
0 01100110011001 011001 10000001 0100001 011001 111 00001 000100000  So, 26.10.08 02:01:00, SZ  Bit 16 gesetzt, Zeitzonenwechsel steht bevor
0 00110101001101 011001 01000001 0100001 011001 111 00001 000100000  So, 26.10.08 02:02:00, SZ  Bit 16 gesetzt, Zeitzonenwechsel steht bevor
0 00001000110101 011001 11000000 0100001 011001 111 00001 000100000  So, 26.10.08 02:03:00, SZ  Bit 16 gesetzt, Zeitzonenwechsel steht bevor
0 00010010110101 011001 00100001 0100001 011001 111 00001 000100000  So, 26.10.08 02:04:00, SZ  Bit 16 gesetzt, Zeitzonenwechsel steht bevor
0 10000011010101 011001 10100000 0100001 011001 111 00001 000100000  So, 26.10.08 02:05:00, SZ  Bit 16 gesetzt, Zeitzonenwechsel steht bevor
0 01100100111111 011001 01100000 0100001 011001 111 00001 000100000  So, 26.10.08 02:06:00, SZ  Bit 16 gesetzt, Zeitzonenwechsel steht bevor
0 00100100011111 011001 11100001 0100001 011001 111 00001 000100000  So, 26.10.08 02:07:00, SZ  Bit 16 gesetzt, Zeitzonenwechsel steht bevor
0 10011100010010 011001 00010001 0100001 011001 111 00001 000100000  So, 26.10.08 02:08:00, SZ  Bit 16 gesetzt, Zeitzonenwechsel steht bevor
0 01000101110111 011001 10010000 0100001 011001 111 00001 000100000  So, 26.10.08 02:09:00, SZ  Bit 16 gesetzt, Zeitzonenwechsel steht bevor
0 01010010000111 011001 00001001 0100001 011001 111 00001 000100000  So, 26.10.08 02:10:00, SZ  Bit 16 gesetzt, Zeitzonenwechsel steht bevor
0 10010010011001 011001 10001000 0100001 011001 111 00001 000100000  So, 26.10.08 02:11:00, SZ  Bit 16 gesetzt, Zeitzonenwechsel steht bevor
0 00011111001111 011001 01001000 0100001 011001 111 00001 000100000  So, 26.10.08 02:12:00, SZ  Bit 16 gesetzt, Zeitzonenwechsel steht bevor
0 00101100111001 011001 11001001 0100001 011001 111 00001 000100000  So, 26.10.08 02:13:00, SZ  Bit 16 gesetzt, Zeitzonenwechsel steht bevor
0 01100111111100 011001 00101000 0100001 011001 111 00001 000100000  So, 26.10.08 02:14:00, SZ  Bit 16 gesetzt, Zeitzonenwechsel steht bevor
0 01111011100011 011001 10101001 0100001 011001 111 00001 000100000  So, 26.10.08 02:15:00, SZ  Bit 16 gesetzt, Zeitzonenwechsel steht bevor
0 00001100110001 011001 01101001 0100001 011001 111 00001 000100000  So, 26.10.08 02:16:00, SZ  Bit 16 gesetzt, Zeitzonenwechsel steht bevor
0 00111110010011 011001 11101000 0100001 011001 111 00001 000100000  So, 26.10.08 02:17:00, SZ  Bit 16 gesetzt, Zeitzonenwechsel steht bevor
0 11100110110110 011001 00011000 0100001 011001 111 00001 000100000  So, 26.10.08 02:18:00, SZ  Bit 16 gesetzt, Zeitzonenwechsel steht bevor
0 01100110010110 011001 10011001 0100001 011001 111 00001 000100000  So, 26.10.08 02:19:00, SZ  Bit 16 gesetzt, Zeitzonenwechsel steht bevor
0 00000000001100 011001 00000101 0100001 011001 111 00001 000100000  So, 26.10.08 02:20:00, SZ  Bit 16 gesetzt, Zeitzonenwechsel steht bevor
0 00100110010000 011001 10000100 0100001 011001 111 00001 000100000  So, 26.10.08 02:21:00, SZ  Bit 16 gesetzt, Zeitzonenwechsel steht bevor
0 00010010010111 011001 01000100 0100001 011001 111 00001 000100000  So, 26.10.08 02:22:00, SZ  Bit 16 gesetzt, Zeitzonenwechsel steht bevor
0 00000001001100 011001 11000101 0100001 011001 111 00001 000100000  So, 26.10.08 02:23:00, SZ  Bit 16 gesetzt, Zeitzonenwechsel steht bevor
0 00001010011011 011001 00100100 0100001 011001 111 00001 000100000  So, 26.10.08 02:24:00, SZ  Bit 16 gesetzt, Zeitzonenwechsel steht bevor
0 01110110110011 011001 10100101 0100001 011001 111 00001 000100000  So, 26.10.08 02:25:00, SZ  Bit 16 gesetzt, Zeitzonenwechsel steht bevor
0 00000111100011 011001 01100101 0100001 011001 111 00001 000100000  So, 26.10.08 02:26:00, SZ  Bit 16 gesetzt, Zeitzonenwechsel steht bevor
0 01001110101110 011001 11100100 0100001 011001 111 00001 000100000  So, 26.10.08 02:27:00, SZ  Bit 16 gesetzt, Zeitzonenwechsel steht bevor
0 01011100011001 011001 00010100 0100001 011001 111 00001 000100000  So, 26.10.08 02:28:00, SZ  Bit 16 gesetzt, Zeitzonenwechsel steht bevor
0 00000000111010 011001 10010101 0100001 011001 111 00001 000100000  So, 26.10.08 02:29:00, SZ  Bit 16 gesetzt, Zeitzonenwechsel steht bevor
0 10110011100011 011001 00001100 0100001 011001 111 00001 000100000  So, 26.10.08 02:30:00, SZ  Bit 16 gesetzt, Zeitzonenwechsel steht bevor
0 00111100110100 011001 10001101 0100001 011001 111 00001 000100000  So, 26.10.08 02:31:00, SZ  Bit 16 gesetzt, Zeitzonenwechsel steht bevor
0 01001000110100 011001 01001101 0100001 011001 111 00001 000100000  So, 26.10.08 02:32:00, SZ  Bit 16 gesetzt, Zeitzonenwechsel steht bevor
0 10100111100001 011001 11001100 0100001 011001 111 00001 000100000  So, 26.10.08 02:33:00, SZ  Bit 16 gesetzt, Zeitzonenwechsel steht bevor
0 00110100100100 011001 00101101 0100001 011001 111 00001 000100000  So, 26.10.08 02:34:00, SZ  Bit 16 gesetzt, Zeitzonenwechsel steht bevor
0 00010100111101 011001 10101100 0100001 011001 111 00001 000100000  So, 26.10.08 02:35:00, SZ  Bit 16 gesetzt, Zeitzonenwechsel steht bevor
0 00111000011100 011001 01101100 0100001 011001 111 00001 000100000  So, 26.10.08 02:36:00, SZ  Bit 16 gesetzt, Zeitzonenwechsel steht bevor
0 01110010000011 011001 11101101 0100001 011001 111 00001 000100000  So, 26.10.08 02:37:00, SZ  Bit 16 gesetzt, Zeitzonenwechsel steht bevor
0 11001111001111 011001 00011101 0100001 011001 111 00001 000100000  So, 26.10.08 02:38:00, SZ  Bit 16 gesetzt, Zeitzonenwechsel steht bevor
0 00101010101010 011001 10011100 0100001 011001 111 00001 000100000  So, 26.10.08 02:39:00, SZ  Bit 16 gesetzt, Zeitzonenwechsel steht bevor
0 00010010111101 011001 00000011 0100001 011001 111 00001 000100000  So, 26.10.08 02:40:00, SZ  Bit 16 gesetzt, Zeitzonenwechsel steht bevor
0 01100010111100 011001 10000010 0100001 011001 111 00001 000100000  So, 26.10.08 02:41:00, SZ  Bit 16 gesetzt, Zeitzonenwechsel steht bevor
0 01011101010000 011001 01000010 0100001 011001 111 00001 000100000  So, 26.10.08 02:42:00, SZ  Bit 16 gesetzt, Zeitzonenwechsel steht bevor
0 01001110110101 011001 11000011 0100001 011001 111 00001 000100000  So, 26.10.08 02:43:00, SZ  Bit 16 gesetzt, Zeitzonenwechsel steht bevor
0 10110010001000 011001 00100010 0100001 011001 111 00001 000100000  So, 26.10.08 02:44:00, SZ  Bit 16 gesetzt, Zeitzonenwechsel steht bevor
0 01001000011000 011001 10100011 0100001 011001 111 00001 000100000  So, 26.10.08 02:45:00, SZ  Bit 16 gesetzt, Zeitzonenwechsel steht bevor
0 01111000011110 011001 01100011 0100001 011001 111 00001 000100000  So, 26.10.08 02:46:00, SZ  Bit 16 gesetzt, Zeitzonenwechsel steht bevor
0 11001010001100 011001 11100010 0100001 011001 111 00001 000100000  So, 26.10.08 02:47:00, SZ  Bit 16 gesetzt, Zeitzonenwechsel steht bevor
0 11000000110000 011001 00010010 0100001 011001 111 00001 000100000  So, 26.10.08 02:48:00, SZ  Bit 16 gesetzt, Zeitzonenwechsel steht bevor
0 00111010101101 011001 10010011 0100001 011001 111 00001 000100000  So, 26.10.08 02:49:00, SZ  Bit 16 gesetzt, Zeitzonenwechsel steht bevor
0 01001000010001 011001 00001010 0100001 011001 111 00001 000100000  So, 26.10.08 02:50:00, SZ  Bit 16 gesetzt, Zeitzonenwechsel steht bevor
0 00000001110010 011001 10001011 0100001 011001 111 00001 000100000  So, 26.10.08 02:51:00, SZ  Bit 16 gesetzt, Zeitzonenwechsel steht bevor
0 00010000100011 011001 01001011 0100001 011001 111 00001 000100000  So, 26.10.08 02:52:00, SZ  Bit 16 gesetzt, Zeitzonenwechsel steht bevor
0 00110101111010 011001 11001010 0100001 011001 111 00001 000100000  So, 26.10.08 02:53:00, SZ  Bit 16 gesetzt, Zeitzonenwechsel steht bevor
0 00100000100101 011001 00101011 0100001 011001 111 00001 000100000  So, 26.10.08 02:54:00, SZ  Bit 16 gesetzt, Zeitzonenwechsel steht bevor
0 01100000000110 011001 10101010 0100001 011001 111 00001 000100000  So, 26.10.08 02:55:00, SZ  Bit 16 gesetzt, Zeitzonenwechsel steht bevor
0 00010100111110 011001 01101010 0100001 011001 111 00001 000100000  So, 26.10.08 02:56:00, SZ  Bit 16 gesetzt, Zeitzonenwechsel steht bevor
0 10100000100011 011001 11101011 0100001 011001 111 00001 000100000  So, 26.10.08 02:57:00, SZ  Bit 16 gesetzt, Zeitzonenwechsel steht bevor
0 01110100100111 011001 00011011 0100001 011001 111 00001 000100000  So, 26.10.08 02:58:00, SZ  Bit 16 gesetzt, Zeitzonenwechsel steht bevor
0 11110001101110 011001 10011010 0100001 011001 111 00001 000100000  So, 26.10.08 02:59:00, SZ  Bit 16 gesetzt, Zeitzonenwechsel steht bevor
0 01000001001110 010101 00000000 0100001 011001 111 00001 000100000  So, 26.10.08 02:00:00, WZ  Bit 16 gesetzt, Zeitzonenwechsel steht bevor
0 01111110100000 000101 10000001 0100001 011001 111 00001 000100000  So, 26.10.08 02:01:00, WZ  
0 11010011010001 000101 01000001 0100001 011001 111 00001 000100000  So, 26.10.08 02:02:00, WZ  
0 10011101011110 000101 11000000 0100001 011001 111 00001 000100000  So, 26.10.08 02:03:00, WZ  
0 01111000011011 000101 00100001 0100001 011001 111 00001 000100000  So, 26.10.08 02:04:00, WZ  
0 00100010100101 000101 10100000 0100001 011001 111 00001 000100000  So, 26.10.08 02:05:00, WZ  
====================================================================================================================
(c) 2008 by T&T-Soft (http://www.tt-soft.org)