DCF-Receiver-Service Version 1.7 (Build 628) - LogFile

Sekunde    0: Minutenmarke (kennzeichnet den Beginn)
Sekunde 1-14: Bereitgestellte Daten von BBK und Meteo Time
Sekunde   15: Rufbit                        Sekunde 21-28: Minute mit Pruefbit
Sekunde   16: Wechsel von MEZ <> MESZ       Sekunde 29-35: Stunde mit Pruefbit
Sekunde   17: Sommerzeit                    Sekunde 36-41: Tag
Sekunde   18: Winterzeit                    Sekunde 42-44: Wochentag
Sekunde   19: Schaltsekunde                 Sekunde 45-49: Monat
Sekunde   20: Beginn des Zeitprotokolls     Sekunde 50-58: Jahr mit Pruefbit fuers Datum

           1     1    2 2         3      3   4  4   4     5
0 12345678901234 567890 12345678 9012345 678901 234 56789 0123456789
M Wetterdaten    Info   Minute P StundeP Tag    WoT Monat Jahr    PS Datum:       Zeit:         Zusatzinformationen:
====================================================================================================================
0 00000001011110 000101 10100011 0000000 000101 111 11000 000010000  So, 28.03.10 00:45:00, WZ  
0 00100110110111 000101 01100011 0000000 000101 111 11000 000010000  So, 28.03.10 00:46:00, WZ  
0 11110111100110 000101 11100010 0000000 000101 111 11000 000010000  So, 28.03.10 00:47:00, WZ  
0 10111011101000 000101 00010010 0000000 000101 111 11000 000010000  So, 28.03.10 00:48:00, WZ  
0 00010110111110 000101 10010011 0000000 000101 111 11000 000010000  So, 28.03.10 00:49:00, WZ  
0 10111110101010 000101 00001010 0000000 000101 111 11000 000010000  So, 28.03.10 00:50:00, WZ  
0 01111101011110 000101 10001011 0000000 000101 111 11000 000010000  So, 28.03.10 00:51:00, WZ  
0 00000100100011 000101 01001011 0000000 000101 111 11000 000010000  So, 28.03.10 00:52:00, WZ  
0 10110100011100 000101 11001010 0000000 000101 111 11000 000010000  So, 28.03.10 00:53:00, WZ  
0 10010110001000 000101 00101011 0000000 000101 111 11000 000010000  So, 28.03.10 00:54:00, WZ  
0 00000010100101 000101 10101010 0000000 000101 111 11000 000010000  So, 28.03.10 00:55:00, WZ  
0 00011101111111 000101 01101010 0000000 000101 111 11000 000010000  So, 28.03.10 00:56:00, WZ  
0 10111000010001 000101 11101011 0000000 000101 111 11000 000010000  So, 28.03.10 00:57:00, WZ  
0 01110100001101 000101 00011011 0000000 000101 111 11000 000010000  So, 28.03.10 00:58:00, WZ  
0 00101000101111 000101 10011010 0000000 000101 111 11000 000010000  So, 28.03.10 00:59:00, WZ  
0 10001011010111 000101 00000000 1000001 000101 111 11000 000010000  So, 28.03.10 01:00:00, WZ  
0 01001000101111 010101 10000001 1000001 000101 111 11000 000010000  So, 28.03.10 01:01:00, WZ  Bit 16 gesetzt, Zeitzonenwechsel steht bevor
0 11000010100110 010101 01000001 1000001 000101 111 11000 000010000  So, 28.03.10 01:02:00, WZ  Bit 16 gesetzt, Zeitzonenwechsel steht bevor
0 10000101001010 010101 11000000 1000001 000101 111 11000 000010000  So, 28.03.10 01:03:00, WZ  Bit 16 gesetzt, Zeitzonenwechsel steht bevor
0 00010100100011 010101 00100001 1000001 000101 111 11000 000010000  So, 28.03.10 01:04:00, WZ  Bit 16 gesetzt, Zeitzonenwechsel steht bevor
0 01101000010010 010101 10100000 1000001 000101 111 11000 000010000  So, 28.03.10 01:05:00, WZ  Bit 16 gesetzt, Zeitzonenwechsel steht bevor
0 11010101101111 010101 01100000 1000001 000101 111 11000 000010000  So, 28.03.10 01:06:00, WZ  Bit 16 gesetzt, Zeitzonenwechsel steht bevor
0 01100110000001 010101 11100001 1000001 000101 111 11000 000010000  So, 28.03.10 01:07:00, WZ  Bit 16 gesetzt, Zeitzonenwechsel steht bevor
0 01100010001000 010101 00010001 1000001 000101 111 11000 000010000  So, 28.03.10 01:08:00, WZ  Bit 16 gesetzt, Zeitzonenwechsel steht bevor
0 11001110011111 010101 10010000 1000001 000101 111 11000 000010000  So, 28.03.10 01:09:00, WZ  Bit 16 gesetzt, Zeitzonenwechsel steht bevor
0 00110000100011 010101 00001001 1000001 000101 111 11000 000010000  So, 28.03.10 01:10:00, WZ  Bit 16 gesetzt, Zeitzonenwechsel steht bevor
0 00010000111001 010101 10001000 1000001 000101 111 11000 000010000  So, 28.03.10 01:11:00, WZ  Bit 16 gesetzt, Zeitzonenwechsel steht bevor
0 00110010011110 010101 01001000 1000001 000101 111 11000 000010000  So, 28.03.10 01:12:00, WZ  Bit 16 gesetzt, Zeitzonenwechsel steht bevor
0 01011100000001 010101 11001001 1000001 000101 111 11000 000010000  So, 28.03.10 01:13:00, WZ  Bit 16 gesetzt, Zeitzonenwechsel steht bevor
0 11101011000101 010101 00101000 1000001 000101 111 11000 000010000  So, 28.03.10 01:14:00, WZ  Bit 16 gesetzt, Zeitzonenwechsel steht bevor
0 00011000100110 010101 10101001 1000001 000101 111 11000 000010000  So, 28.03.10 01:15:00, WZ  Bit 16 gesetzt, Zeitzonenwechsel steht bevor
0 00000100000010 010101 01101001 1000001 000101 111 11000 000010000  So, 28.03.10 01:16:00, WZ  Bit 16 gesetzt, Zeitzonenwechsel steht bevor
0 00101011011011 010101 11101000 1000001 000101 111 11000 000010000  So, 28.03.10 01:17:00, WZ  Bit 16 gesetzt, Zeitzonenwechsel steht bevor
0 01110110100111 010101 00011000 1000001 000101 111 11000 000010000  So, 28.03.10 01:18:00, WZ  Bit 16 gesetzt, Zeitzonenwechsel steht bevor
0 01110110101000 010101 10011001 1000001 000101 111 11000 000010000  So, 28.03.10 01:19:00, WZ  Bit 16 gesetzt, Zeitzonenwechsel steht bevor
0 00101011101111 010101 00000101 1000001 000101 111 11000 000010000  So, 28.03.10 01:20:00, WZ  Bit 16 gesetzt, Zeitzonenwechsel steht bevor
0 01110000000100 010101 10000100 1000001 000101 111 11000 000010000  So, 28.03.10 01:21:00, WZ  Bit 16 gesetzt, Zeitzonenwechsel steht bevor
0 01011000110101 010101 01000100 1000001 000101 111 11000 000010000  So, 28.03.10 01:22:00, WZ  Bit 16 gesetzt, Zeitzonenwechsel steht bevor
0 10011100111010 010101 11000101 1000001 000101 111 11000 000010000  So, 28.03.10 01:23:00, WZ  Bit 16 gesetzt, Zeitzonenwechsel steht bevor
0 10110001101011 010101 00100100 1000001 000101 111 11000 000010000  So, 28.03.10 01:24:00, WZ  Bit 16 gesetzt, Zeitzonenwechsel steht bevor
0 01101010011010 010101 10100101 1000001 000101 111 11000 000010000  So, 28.03.10 01:25:00, WZ  Bit 16 gesetzt, Zeitzonenwechsel steht bevor
0 01101111001011 010101 01100101 1000001 000101 111 11000 000010000  So, 28.03.10 01:26:00, WZ  Bit 16 gesetzt, Zeitzonenwechsel steht bevor
0 01101110001001 010101 11100100 1000001 000101 111 11000 000010000  So, 28.03.10 01:27:00, WZ  Bit 16 gesetzt, Zeitzonenwechsel steht bevor
0 01110000000111 010101 00010100 1000001 000101 111 11000 000010000  So, 28.03.10 01:28:00, WZ  Bit 16 gesetzt, Zeitzonenwechsel steht bevor
0 00111110011010 010101 10010101 1000001 000101 111 11000 000010000  So, 28.03.10 01:29:00, WZ  Bit 16 gesetzt, Zeitzonenwechsel steht bevor
0 00011101010100 010101 00001100 1000001 000101 111 11000 000010000  So, 28.03.10 01:30:00, WZ  Bit 16 gesetzt, Zeitzonenwechsel steht bevor
0 01011000100101 010101 10001101 1000001 000101 111 11000 000010000  So, 28.03.10 01:31:00, WZ  Bit 16 gesetzt, Zeitzonenwechsel steht bevor
0 00000010101001 010101 01001101 1000001 000101 111 11000 000010000  So, 28.03.10 01:32:00, WZ  Bit 16 gesetzt, Zeitzonenwechsel steht bevor
0 10010101110001 010101 11001100 1000001 000101 111 11000 000010000  So, 28.03.10 01:33:00, WZ  Bit 16 gesetzt, Zeitzonenwechsel steht bevor
0 00000000110111 010101 00101101 1000001 000101 111 11000 000010000  So, 28.03.10 01:34:00, WZ  Bit 16 gesetzt, Zeitzonenwechsel steht bevor
0 11111101100001 010101 10101100 1000001 000101 111 11000 000010000  So, 28.03.10 01:35:00, WZ  Bit 16 gesetzt, Zeitzonenwechsel steht bevor
0 00101111010100 010101 01101100 1000001 000101 111 11000 000010000  So, 28.03.10 01:36:00, WZ  Bit 16 gesetzt, Zeitzonenwechsel steht bevor
0 00000110110001 010101 11101101 1000001 000101 111 11000 000010000  So, 28.03.10 01:37:00, WZ  Bit 16 gesetzt, Zeitzonenwechsel steht bevor
0 10101011101010 010101 00011101 1000001 000101 111 11000 000010000  So, 28.03.10 01:38:00, WZ  Bit 16 gesetzt, Zeitzonenwechsel steht bevor
0 01011010111001 010101 10011100 1000001 000101 111 11000 000010000  So, 28.03.10 01:39:00, WZ  Bit 16 gesetzt, Zeitzonenwechsel steht bevor
0 01110100000111 010101 00000011 1000001 000101 111 11000 000010000  So, 28.03.10 01:40:00, WZ  Bit 16 gesetzt, Zeitzonenwechsel steht bevor
0 01111111010000 010101 10000010 1000001 000101 111 11000 000010000  So, 28.03.10 01:41:00, WZ  Bit 16 gesetzt, Zeitzonenwechsel steht bevor
0 10000111011000 010101 01000010 1000001 000101 111 11000 000010000  So, 28.03.10 01:42:00, WZ  Bit 16 gesetzt, Zeitzonenwechsel steht bevor
0 00010100100011 010101 11000011 1000001 000101 111 11000 000010000  So, 28.03.10 01:43:00, WZ  Bit 16 gesetzt, Zeitzonenwechsel steht bevor
0 10100011011111 010101 00100010 1000001 000101 111 11000 000010000  So, 28.03.10 01:44:00, WZ  Bit 16 gesetzt, Zeitzonenwechsel steht bevor
0 00001010111000 010101 10100011 1000001 000101 111 11000 000010000  So, 28.03.10 01:45:00, WZ  Bit 16 gesetzt, Zeitzonenwechsel steht bevor
0 00111110100001 010101 01100011 1000001 000101 111 11000 000010000  So, 28.03.10 01:46:00, WZ  Bit 16 gesetzt, Zeitzonenwechsel steht bevor
0 11101110101001 010101 11100010 1000001 000101 111 11000 000010000  So, 28.03.10 01:47:00, WZ  Bit 16 gesetzt, Zeitzonenwechsel steht bevor
0 10011100010000 010101 00010010 1000001 000101 111 11000 000010000  So, 28.03.10 01:48:00, WZ  Bit 16 gesetzt, Zeitzonenwechsel steht bevor
0 00111100010111 010101 10010011 1000001 000101 111 11000 000010000  So, 28.03.10 01:49:00, WZ  Bit 16 gesetzt, Zeitzonenwechsel steht bevor
0 00100101001001 010101 00001010 1000001 000101 111 11000 000010000  So, 28.03.10 01:50:00, WZ  Bit 16 gesetzt, Zeitzonenwechsel steht bevor
0 00110011101101 010101 10001011 1000001 000101 111 11000 000010000  So, 28.03.10 01:51:00, WZ  Bit 16 gesetzt, Zeitzonenwechsel steht bevor
0 00011000110111 010101 01001011 1000001 000101 111 11000 000010000  So, 28.03.10 01:52:00, WZ  Bit 16 gesetzt, Zeitzonenwechsel steht bevor
0 01110001100100 010101 11001010 1000001 000101 111 11000 000010000  So, 28.03.10 01:53:00, WZ  Bit 16 gesetzt, Zeitzonenwechsel steht bevor
0 10100001100001 010101 00101011 1000001 000101 111 11000 000010000  So, 28.03.10 01:54:00, WZ  Bit 16 gesetzt, Zeitzonenwechsel steht bevor
0 00100010101111 010101 10101010 1000001 000101 111 11000 000010000  So, 28.03.10 01:55:00, WZ  Bit 16 gesetzt, Zeitzonenwechsel steht bevor
0 10011011100101 010101 01101010 1000001 000101 111 11000 000010000  So, 28.03.10 01:56:00, WZ  Bit 16 gesetzt, Zeitzonenwechsel steht bevor
0 01110111110110 010101 11101011 1000001 000101 111 11000 000010000  So, 28.03.10 01:57:00, WZ  Bit 16 gesetzt, Zeitzonenwechsel steht bevor
0 01000100001011 010101 00011011 1000001 000101 111 11000 000010000  So, 28.03.10 01:58:00, WZ  Bit 16 gesetzt, Zeitzonenwechsel steht bevor
0 11111000110011 010101 10011010 1000001 000101 111 11000 000010000  So, 28.03.10 01:59:00, WZ  Bit 16 gesetzt, Zeitzonenwechsel steht bevor
0 11101111101010 011001 00000000 1100000 000101 111 11000 000010000  So, 28.03.10 03:00:00, SZ  Bit 16 gesetzt, Zeitzonenwechsel steht bevor
0 01011010110101 001001 10000001 1100000 000101 111 11000 000010000  So, 28.03.10 03:01:00, SZ  
0 00100001001110 001001 01000001 1100000 000101 111 11000 000010000  So, 28.03.10 03:02:00, SZ  
0 11101100000100 001001 11000000 1100000 000101 111 11000 000010000  So, 28.03.10 03:03:00, SZ  
0 00111110000000 001001 00100001 1100000 000101 111 11000 000010000  So, 28.03.10 03:04:00, SZ  
0 00000110010101 001001 10100000 1100000 000101 111 11000 000010000  So, 28.03.10 03:05:00, SZ  
0 11011101010001 001001 01100000 1100000 000101 111 11000 000010000  So, 28.03.10 03:06:00, SZ  
0 01001000000001 001001 11100001 1100000 000101 111 11000 000010000  So, 28.03.10 03:07:00, SZ  
0 10101001111001 001001 00010001 1100000 000101 111 11000 000010000  So, 28.03.10 03:08:00, SZ  
0 00110101100010 001001 10010000 1100000 000101 111 11000 000010000  So, 28.03.10 03:09:00, SZ  
0 00001110001110 001001 00001001 1100000 000101 111 11000 000010000  So, 28.03.10 03:10:00, SZ  
0 01011111010101 001001 10001000 1100000 000101 111 11000 000010000  So, 28.03.10 03:11:00, SZ  
0 11111011101101 001001 01001000 1100000 000101 111 11000 000010000  So, 28.03.10 03:12:00, SZ  
0 00000110001110 001001 11001001 1100000 000101 111 11000 000010000  So, 28.03.10 03:13:00, SZ  
0 11110000010101 001001 00101000 1100000 000101 111 11000 000010000  So, 28.03.10 03:14:00, SZ  
====================================================================================================================
(c) 2009 by T&T-Soft (http://www.tt-soft.org)